; Function Attrs: mustprogress uwtable
define internal void @_ZNK9grpc_core12_GLOBAL__N_121ChildEndpointIterator7ForEachEN4absl12lts_2024072211FunctionRefIFvRKNS_17EndpointAddressesEEEE(ptr noundef nonnull align 8 dereferenceable(24) %0, ptr %1, ptr %2) unnamed_addr #3 align 2 {
  %4 = alloca %"class.absl::lts_20240722::FunctionRef", align 8
  %5 = alloca %class.anon.548, align 8
  store ptr %1, ptr %4, align 8
  %6 = getelementptr inbounds nuw i8, ptr %4, i64 8
  store ptr %2, ptr %6, align 8
  %7 = getelementptr inbounds nuw i8, ptr %0, i64 8
  %8 = load ptr, ptr %7, align 8, !tbaa !155
  call void @llvm.lifetime.start.p0(i64 16, ptr nonnull %5) #40
  store ptr %0, ptr %5, align 8, !tbaa !404
  %9 = getelementptr inbounds nuw i8, ptr %5, i64 8
  store ptr %4, ptr %9, align 8, !tbaa !407
  %10 = load ptr, ptr %8, align 8, !tbaa !6
  %11 = getelementptr inbounds nuw i8, ptr %10, i64 16
  %12 = load ptr, ptr %11, align 8
  call void %12(ptr noundef nonnull align 8 dereferenceable(8) %8, ptr nonnull %5, ptr nonnull @_ZN4absl12lts_2024072219functional_internal12InvokeObjectIZNK9grpc_core12_GLOBAL__N_121ChildEndpointIterator7ForEachENS0_11FunctionRefIFvRKNS3_17EndpointAddressesEEEEEUlS9_E_vJS9_EEET0_NS1_7VoidPtrEDpNS1_8ForwardTIT1_E4typeE)
  call void @llvm.lifetime.end.p0(i64 16, ptr nonnull %5) #40
  ret void
}